(lp0
F3207378347.6150403
aF4214172017.36547
aF5550081002.6361
aF5871716424.62175
aF1662032343.37701
aF6746863968.164101
aF2275383613.2101097
aF2288847421.5723
aF4001743040.98425
aF13613406232.881
aF37399467672.75
aF43039307397.800705
aF37608904691.7174
aF5695190937.20637
aF16006972163.937
aF144182427771.9858
aF6797727244.199039
aF10232494355.2644
aF12531813627.785072
aF3336032516.4093
aF57445582345.344
aF8364016950.33381
aF57744778086.726
aF53855233448.759995
aF9768740956.1223
aF17248634490.6723
aF22032774395.37048
aF5798413467.98316
aF10230998376.55749
aF2812439968.9908
aF6390372242.307447
aF8377480758.695999
aF27974801819.217
aF42934588888.31699
aF101128160587.116
aF4878386563.23351
aF17622629167.3998
aF5050424114.528161
aF3112682895.467637
aF6687024819.887699
aF14002360696.6776
aF21886168482.093304
aF23187669957.105
aF7809008850.070201
aF76145316181.719
aF8078285017.314001
aF4188740379.3479996
aF29171584784.745003
aF19193406809.6553
aF18969010003.6188
aF6881502051.786
aF4293458888.8317
aF9290027769.9111
aF18907674876.63549
aF3009909158.30292
aF15483379616.5185
aF21377535721.7439
aF16798793693.504463
aF9071614878.70224
aF5710150724.27547
aF6926381412.9933
aF7657915000.67229
aF69847245825.6279
aF26988951851.363308
aF27825203948.526005
aF13807883464.779299
aF17502950870.847
aF26927616724.379997
aF25177321637.2953
aF13763004103.572
aF13568526871.6737
aF14196837928.5759
aF39284400843.4566
aF18684774049.3059
aF50010568172.0013
aF38491532128.7943
aF22978232938.137596
aF41737805922.788994
aF15154264300.9983
aF12326864544.9384
aF118227197207.0973
aF35454695353.767
aF17532870444.9852
aF9508440661.11996
aF25431638017.47
aF11249759875.9632
aF18101342353.611
aF104598831187.1472
aF2842359543.1289997
aF50788477099.594505
aF8950440603.44253
aF4353298037.1081
aF28647992237.3265
aF74798935345.5
aF6821662903.509601
aF19447723189.83
aF69712607742.006
aF5609920150.912499
aF11055282644.0649
aF14660591327.718
aF21616892314.8495
aF33958716646.857
aF19343004680.3463
aF10026049293.710821
aF9589223511.2931
aF15947133015.6606
aF45567511412.4786
aF127008592216.65901
aF9275067982.842
aF6001866572.122919
aF8227882888.005
aF90277827025.89777
aF6776783542.3023
aF21392495508.813004
aF6981732625.14897
aF117883122104.508
aF6746863968.164101
aF29470780526.127
aF7090939070.7534
aF36109335635.91082
aF8028917719.9859705
aF5235925474.185
aF6227759356.86633
aF18370618520.8548
aF8362520971.6269
aF53152123456.5123
aF5744558234.534399
aF9424665853.533
aF163001839904.91357
aF15258982810.481998
aF5714638660.396199
aF8108204591.4522
aF6941341200.0624
aF7396118726.963039
aF7823968637.1393
aF8646756925.9398
aF9080590750.943699
aF673190418109.5
aF8212923100.9359
aF6761823755.233199
aF7270456515.5826
aF13613406232.881
aF6971260774.200601
aF7779089275.932001
aF8826274370.769001
aF7583116065.32679
aF8227882888.005
aF8975872241.46
aF18041503205.3346
aF5419930855.13493
aF105436579263.0168
aF25192281424.3644
aF6746863968.164101
aF6193351846.6074
aF9731341488.449549
aF7584612044.0337
aF7090939070.7534
aF11967829655.28
aF69293733704.0712
aF7548708555.067861
aF7180697793.168
aF15492355488.759958
aF10023057336.297
aF16410886414.8027
aF7764129488.8629
aF6731904181.094999
aF6733400159.80191
aF4727292713.835601
aF4069062082.7952
aF7400606663.08377
aF10382092225.9554
aF8803834690.16535
aF6969764795.49369
aF6776783542.3023
aF9020751602.6673
aF8631797138.8707
aF867667650.0078
aF303085286019.96594
aF4487936120.73
aF8157571888.78023
aF7868847998.346601
aF6718440372.732811
aF5910611871.0014105
aF9140429899.2201
aF97537811690.532
aF9245148408.7038
aF5146166751.7704
aF6069185613.93387
aF8048365443.1758
aF4639029970.127911
aF5458826301.514589
aF10187614994.057098
aF6971260774.200601
aF9379786492.3257
aF4803587627.88801
aF7239040962.73749
aF6887485966.61364
aF7259984664.634231
aF5363083664.27235
aF7110386793.943231
aF7614531618.1719
aF6716944394.0259
aF9040199325.85713
aF7723738063.776329
aF5983914827.64
aF23225069424.77775
aF6492547587.9894
aF30951799445.9679
aF11683593700.9671
aF8986344092.408371
aF8407400332.8342
aF7083459177.21885
aF8190483420.33225
aF7215105303.42693
aF8548022331.283739
aF6627185671.6112995
aF7043067752.13228
aF6327989930.2293
aF6179888038.24521
aF5081839667.37327
aF11533995830.2761
aF8244338653.78101
aF6513491289.886139
aF19386388062.84669
aF13463808362.189999
aF5846284786.60428
aF6308542207.03947
aF4278499101.7626
aF9424665853.533
aF7909239423.433171
aF6158944336.34847
aF5629367874.10233
aF6939845221.35549
aF45627350560.755
aF6526955098.24833
aF5206005900.0468
aF9143421856.63392
aF6941341200.0624
aF4876890584.5266
aF5526145343.325541
aF6727416244.97427
aF17237713846.111855
aF14181878141.5068
aF60153303804.851105
aF5191046112.9777
aF5774477808.672601
aF5817861191.17299
aF6881502051.786
aF10426971587.1627
aF7150778219.0298
aF5624879937.9816
aF3904504425.0351005
aF6761823755.233199
aF6377357227.55733
aF7180697793.168
aF6458140077.73047
aF6685528841.18079
aF6007850486.950561
aF6019818316.60584
aF4936729732.803
aF8096236761.79692
aF5235925474.185
aF4939721690.21682
aF4736268586.07706
aF10035025165.95228
aF6022810274.019661
aF9816612274.74342
aF74619417900.6708
aF13523647510.466398
aF6586794246.52473
aF6672065032.8186
aF9394746279.394798
aF9918338826.8133
aF7629491405.240999
aF7791057105.587279
aF71956575802.371
aF7629491405.240999
aF8673684542.664179
aF8601877564.7325
aF2444429207.09094
aF5609920150.912499
aF7255496728.5135
aF5707158766.86165
aF7539732682.8264
aF4024182721.5879
aF23038072086.414
aF7749169701.793799
aF2775040501.31805
aF5161126538.8395
aF5669759299.1889
aF8497159055.2488
aF6806703116.4405
aF3805769830.3790402
aF3380911877.6165996
aF7704290340.586499
aF3500590174.1694
aF5575512640.653569
aF658230631.0404
aF8676676500.078
aF4785635883.405089
aF5430402706.0833
aF15139304513.9292
aF5280804835.3923
aF5834316956.949
aF6477587800.9203
aF3961351615.89768
aF4365265866.76338
aF4495416014.26455
aF7586108022.740611
aF3488622344.51412
aF7629491405.240999
aF5415442919.0142
aF19567401486.3828
aF2508756291.48807
aF5535121215.567
aF3440751025.893
aF6776783542.3023
aF11504076256.1379
aF6043753975.9164
aF57146386603.962
aF4535807439.35112
aF5081839667.37327
aF6299566334.79801
aF4725796735.12869
aF406981007214.8655
aF4996568881.0794
aF507136781642.49
aF3994263147.4497004
aF7475405598.42927
aF8347561184.5578
aF176983256899.69446
aF4265035293.40041
aF3291153155.202
aF2124289763.8122
aF6672065032.8186
aF11219840301.824999
aF41947242941.7564
aF6642145458.6804
aF350358213158.322
aF5518665449.79099
aF5265845048.3232
aF3635228257.7913
aF3413823409.16862
aF79885262948.994
aF111218536965.22395
aF234270265502.106
aF44879361207.299995
aF4215667996.07238
aF6135008677.03791
aF4057094253.1399198
aF4407153270.556861
aF11967829655.28
aF3736954809.8611803
aF6238231207.8147
aF3560429322.4458003
aF31163779628.73705
aF513120696470.13
aF6103593124.1928005
aF6522467162.1276
aF362026847072.22
aF6896461838.855101
aF4832011223.319301
aF3876080829.6038103
aF3220842155.97723
aF172037551294.65
aF55351212155.67
aF10527202160.525671
aF7016140135.4079
aF7517293002.222751
aF15782575357.9005
aF3057780476.92404
aF7734209914.7247
aF7180697793.168
aF10157695419.9189
aF17099036619.9813
aF5179078283.32242
aF8676676500.078
aF12790617944.080502
aF5225453623.23663
aF1727855406481.05
aF5600944278.671041
aF11830199614.24428
aF4413137185.3845
aF4185748421.9341803
aF9806140423.79505
aF3710027193.1368
aF6432708439.712999
aF260300295002.34
aF823237082412.5729
aF7814992764.89784
aF7031099922.477
aF6178392059.5383005
aF13463808362.189999
aF5659287448.24053
aF6173904123.41757
aF12192226461.3165
aF912547011215.1
aF7689330553.5174
aF10425475608.45579
aF13029974537.1861
aF7052043624.373739
aF45028959077.991
aF13673245381.1574
aF8138124165.5904
aF6387829078.5057
aF4193228315.4687304
aF882627437076.9
aF7089443092.046489
aF5400483131.9451
aF251324422760.88
aF800348608196.85
aF4039142508.6570005
aF119678296552.8
aF418874037934.8
aF403914250865.7
aF5446858471.859311
aF8721555861.2853
aF12237105822.5238
aF7120858644.891601
aF5433394663.49712
aF673190418109.5
aF360530868365.31
aF24534050793.323997
aF628311056902.2001
aF267780188536.89
aF887264971068.321
aF3689083491.24006
aF53855233448.759995
a.