(lp0
F-3207378347.61504
aF-4214172017.36547
aF-5550081002.636101
aF-5871716424.621749
aF-1662032343.3770099
aF-6746863968.1641
aF-2275383613.21011
aF-2288847421.5722995
aF-4001743040.9842496
aF-13613406232.881
aF-37399467672.75001
aF-43039307397.8007
aF-37608904691.71739
aF-5695190937.206371
aF-16006972163.936995
aF-144182427771.98578
aF-6797727244.19904
aF-10232494355.264399
aF-12531813627.785074
aF-3336032516.4093003
aF-57445582345.34399
aF-8364016950.333809
aF-57744778086.72599
aF-53855233448.75999
aF-9768740956.122301
aF-17248634490.672306
aF-22032774395.370476
aF-5798413467.983159
aF-10230998376.55749
aF-2812439968.9907994
aF-6390372242.307448
aF-8377480758.695999
aF-27974801819.216995
aF-42934588888.316986
aF-101128160587.116
aF-4878386563.233511
aF-17622629167.399796
aF-5050424114.528161
aF-3112682895.467636
aF-6687024819.8877
aF-14002360696.677607
aF-21886168482.0933
aF-23187669957.105
aF-7809008850.070201
aF-76145316181.719
aF-8078285017.314005
aF-4188740379.3479986
aF-29171584784.744995
aF-19193406809.6553
aF-18969010003.6188
aF-6881502051.786
aF-4293458888.831701
aF-9290027769.911098
aF-18907674876.635494
aF-3009909158.30292
aF-15483379616.518494
aF-21377535721.743904
aF-16798793693.504463
aF-9071614878.70224
aF-5710150724.27547
aF-6926381412.993301
aF-7657915000.672289
aF-69847245825.62791
aF-26988951851.363304
aF-27825203948.525993
aF-13807883464.779297
aF-17502950870.846996
aF-26927616724.379993
aF-25177321637.295296
aF-13763004103.571999
aF-13568526871.673702
aF-14196837928.575895
aF-39284400843.45659
aF-18684774049.305904
aF-50010568172.0013
aF-38491532128.7943
aF-22978232938.137592
aF-41737805922.78899
aF-15154264300.998302
aF-12326864544.9384
aF-118227197207.0973
aF-35454695353.76698
aF-17532870444.985203
aF-9508440661.119959
aF-25431638017.47
aF-11249759875.963198
aF-18101342353.611
aF-104598831187.1472
aF-2842359543.128999
aF-50788477099.5945
aF-8950440603.44253
aF-4353298037.1081
aF-28647992237.3265
aF-74798935345.5
aF-6821662903.509602
aF-19447723189.830006
aF-69712607742.006
aF-5609920150.912498
aF-11055282644.064901
aF-14660591327.718004
aF-21616892314.84949
aF-33958716646.856987
aF-19343004680.346302
aF-10026049293.71082
aF-9589223511.293098
aF-15947133015.6606
aF-45567511412.478615
aF-127008592216.65901
aF-9275067982.842
aF-6001866572.122919
aF-8227882888.005
aF-90277827025.89775
aF-6776783542.3023
aF-21392495508.813004
aF-6981732625.14897
aF-117883122104.50798
aF-6746863968.164103
aF-29470780526.127007
aF-7090939070.7534
aF-36109335635.91083
aF-8028917719.9859705
aF-5235925474.185
aF-6227759356.866329
aF-18370618520.8548
aF-8362520971.626899
aF-53152123456.5123
aF-5744558234.534399
aF-9424665853.533003
aF-163001839904.9136
aF-15258982810.482002
aF-5714638660.396199
aF-8108204591.452202
aF-6941341200.062398
aF-7396118726.963038
aF-7823968637.139301
aF-8646756925.9398
aF-9080590750.943697
aF-673190418109.5
aF-8212923100.935903
aF-6761823755.233201
aF-7270456515.582599
aF-13613406232.880999
aF-6971260774.200602
aF-7779089275.932002
aF-8826274370.769001
aF-7583116065.326788
aF-8227882888.005
aF-8975872241.459997
aF-18041503205.334602
aF-5419930855.134931
aF-105436579263.01682
aF-25192281424.364407
aF-6746863968.164102
aF-6193351846.6074
aF-9731341488.44955
aF-7584612044.0337
aF-7090939070.753399
aF-11967829655.280003
aF-69293733704.07121
aF-7548708555.06786
aF-7180697793.168
aF-15492355488.759954
aF-10023057336.297
aF-16410886414.802702
aF-7764129488.862901
aF-6731904181.094996
aF-6733400159.8019085
aF-4727292713.8356
aF-4069062082.795199
aF-7400606663.08377
aF-10382092225.955399
aF-8803834690.165348
aF-6969764795.4936905
aF-6776783542.302301
aF-9020751602.6673
aF-8631797138.870699
aF-867667650.0078001
aF-303085286019.966
aF-4487936120.7300005
aF-8157571888.78023
aF-7868847998.3466
aF-6718440372.732811
aF-5910611871.001411
aF-9140429899.2201
aF-97537811690.53201
aF-9245148408.7038
aF-5146166751.770401
aF-6069185613.933871
aF-8048365443.175801
aF-4639029970.12791
aF-5458826301.51459
aF-10187614994.057098
aF-6971260774.200603
aF-9379786492.325703
aF-4803587627.888011
aF-7239040962.737491
aF-6887485966.613643
aF-7259984664.6342325
aF-5363083664.272351
aF-7110386793.943229
aF-7614531618.1719
aF-6716944394.025901
aF-9040199325.85713
aF-7723738063.77633
aF-5983914827.640002
aF-23225069424.777752
aF-6492547587.989401
aF-30951799445.967903
aF-11683593700.967096
aF-8986344092.408373
aF-8407400332.834202
aF-7083459177.218848
aF-8190483420.332249
aF-7215105303.426931
aF-8548022331.283742
aF-6627185671.6113
aF-7043067752.132278
aF-6327989930.229299
aF-6179888038.245209
aF-5081839667.373273
aF-11533995830.276098
aF-8244338653.781011
aF-6513491289.886138
aF-19386388062.846695
aF-13463808362.189997
aF-5846284786.60428
aF-6308542207.039469
aF-4278499101.762599
aF-9424665853.532999
aF-7909239423.433169
aF-6158944336.34847
aF-5629367874.10233
aF-6939845221.355488
aF-45627350560.755
aF-6526955098.24833
aF-5206005900.046799
aF-9143421856.633917
aF-6941341200.062399
aF-4876890584.526601
aF-5526145343.32554
aF-6727416244.974268
aF-17237713846.11185
aF-14181878141.5068
aF-60153303804.851105
aF-5191046112.977699
aF-5774477808.672602
aF-5817861191.172988
aF-6881502051.786
aF-10426971587.162703
aF-7150778219.029801
aF-5624879937.981601
aF-3904504425.0351005
aF-6761823755.233201
aF-6377357227.557329
aF-7180697793.167999
aF-6458140077.730471
aF-6685528841.18079
aF-6007850486.95056
aF-6019818316.605838
aF-4936729732.8029995
aF-8096236761.796916
aF-5235925474.185002
aF-4939721690.216819
aF-4736268586.07706
aF-10035025165.95228
aF-6022810274.019662
aF-9816612274.743418
aF-74619417900.6708
aF-13523647510.4664
aF-6586794246.52473
aF-6672065032.818598
aF-9394746279.394796
aF-9918338826.8133
aF-7629491405.241
aF-7791057105.587278
aF-71956575802.371
aF-7629491405.240999
aF-8673684542.66418
aF-8601877564.7325
aF-2444429207.09094
aF-5609920150.912501
aF-7255496728.5135
aF-5707158766.86165
aF-7539732682.826399
aF-4024182721.5878997
aF-23038072086.413998
aF-7749169701.793799
aF-2775040501.3180504
aF-5161126538.8395
aF-5669759299.188901
aF-8497159055.248799
aF-6806703116.4405
aF-3805769830.3790407
aF-3380911877.6165986
aF-7704290340.586501
aF-3500590174.1694
aF-5575512640.653569
aF-658230631.0403999
aF-8676676500.078
aF-4785635883.405089
aF-5430402706.083302
aF-15139304513.929197
aF-5280804835.3923
aF-5834316956.949001
aF-6477587800.920298
aF-3961351615.8976808
aF-4365265866.763381
aF-4495416014.26455
aF-7586108022.740611
aF-3488622344.5141206
aF-7629491405.240996
aF-5415442919.0142
aF-19567401486.382805
aF-2508756291.48807
aF-5535121215.5669985
aF-3440751025.8929996
aF-6776783542.302301
aF-11504076256.1379
aF-6043753975.9164
aF-57146386603.96202
aF-4535807439.351119
aF-5081839667.37327
aF-6299566334.798008
aF-4725796735.12869
aF-406981007214.86554
aF-4996568881.079401
aF-507136781642.49
aF-3994263147.449701
aF-7475405598.429269
aF-8347561184.5578
aF-176983256899.6945
aF-4265035293.40041
aF-3291153155.2019997
aF-2124289763.8122
aF-6672065032.8186
aF-11219840301.825
aF-41947242941.75639
aF-6642145458.680398
aF-350358213158.32214
aF-5518665449.79099
aF-5265845048.323201
aF-3635228257.791301
aF-3413823409.1686206
aF-79885262948.994
aF-111218536965.22395
aF-234270265502.10596
aF-44879361207.30001
aF-4215667996.072379
aF-6135008677.03791
aF-4057094253.139919
aF-4407153270.55686
aF-11967829655.28
aF-3736954809.861181
aF-6238231207.8147
aF-3560429322.4458003
aF-31163779628.73705
aF-513120696470.13
aF-6103593124.1928
aF-6522467162.127602
aF-362026847072.21985
aF-6896461838.855101
aF-4832011223.319303
aF-3876080829.6038103
aF-3220842155.97723
aF-172037551294.65002
aF-55351212155.670006
aF-10527202160.525673
aF-7016140135.407899
aF-7517293002.22275
aF-15782575357.9005
aF-3057780476.9240403
aF-7734209914.724697
aF-7180697793.168002
aF-10157695419.918896
aF-17099036619.981298
aF-5179078283.322419
aF-8676676500.078003
aF-12790617944.0805
aF-5225453623.23663
aF-1727855406481.0503
aF-5600944278.67104
aF-11830199614.244282
aF-4413137185.3845
aF-4185748421.93418
aF-9806140423.79505
aF-3710027193.1368003
aF-6432708439.713
aF-260300295002.34
aF-823237082412.5729
aF-7814992764.897839
aF-7031099922.476998
aF-6178392059.538301
aF-13463808362.189993
aF-5659287448.24053
aF-6173904123.417568
aF-12192226461.316496
aF-912547011215.1
aF-7689330553.517401
aF-10425475608.455788
aF-13029974537.1861
aF-7052043624.373739
aF-45028959077.991005
aF-13673245381.157404
aF-8138124165.590402
aF-6387829078.505701
aF-4193228315.4687324
aF-882627437076.9
aF-7089443092.046487
aF-5400483131.9451
aF-251324422760.88004
aF-800348608196.8501
aF-4039142508.657
aF-119678296552.79999
aF-418874037934.8
aF-403914250865.70013
aF-5446858471.859311
aF-8721555861.2853
aF-12237105822.523798
aF-7120858644.891601
aF-5433394663.49712
aF-673190418109.4999
aF-360530868365.31006
aF-24534050793.324005
aF-628311056902.2001
aF-267780188536.8901
aF-887264971068.3212
aF-3689083491.24006
aF-53855233448.76001
a.